(dp0
Vengine
p1
S'pdflatex'
p2
sVpackages
p3
c__builtin__
set
p4
((lp5
Vgeometry
p6
aVamsmath
p7
aVepstopdf
p8
aVenumerate
p9
aVgraphicx
p10
aVamssymb
p11
atp12
Rp13
sVfiles_with_guttermarks
p14
g4
((lp15
S'homework4.tex'
p16
aV/Users/aldofpr/Desktop/CS373/hw2/./homework4.tex
p17
atp18
Rp19
sVsynctex
p20
I01
s.